target datalayout = "e-m:e-p270:32:32-p271:32:32-p272:64:64-i64:64-i128:128-f80:128-n8:16:32:64-S128"
target triple = "x86_64-unknown-linux-gnu"

%"class.std::__shared_count" = type { ptr }
%"class.arrow::FixedSizeBinaryBuilder" = type { %"class.arrow::ArrayBuilder", i32, %"class.arrow::BufferBuilder" }
%"class.arrow::ArrayBuilder" = type { ptr, ptr, i64, %"class.arrow::TypedBufferBuilder", i64, i64, i64, %"class.std::vector" }
%"class.arrow::TypedBufferBuilder" = type { %"class.arrow::BufferBuilder", i64, i64 }
%"class.std::vector" = type { %"struct.std::_Vector_base" }
%"struct.std::_Vector_base" = type { %"struct.std::_Vector_base<std::shared_ptr<arrow::ArrayBuilder>, std::allocator<std::shared_ptr<arrow::ArrayBuilder>>>::_Vector_impl" }
%"struct.std::_Vector_base<std::shared_ptr<arrow::ArrayBuilder>, std::allocator<std::shared_ptr<arrow::ArrayBuilder>>>::_Vector_impl" = type { %"struct.std::_Vector_base<std::shared_ptr<arrow::ArrayBuilder>, std::allocator<std::shared_ptr<arrow::ArrayBuilder>>>::_Vector_impl_data" }
%"struct.std::_Vector_base<std::shared_ptr<arrow::ArrayBuilder>, std::allocator<std::shared_ptr<arrow::ArrayBuilder>>>::_Vector_impl_data" = type { ptr, ptr, ptr }
%"class.arrow::BufferBuilder" = type { %"class.std::shared_ptr", ptr, ptr, i64, i64, i64 }
%"class.std::shared_ptr" = type { %"class.std::__shared_ptr" }
%"class.std::__shared_ptr" = type { ptr, %"class.std::__shared_count" }
%"class.std::basic_string_view" = type { i64, ptr }

@_ZN5arrow8bit_utilL8kBitmaskE = internal constant [8 x i8] c"\01\02\04\08\10 @\80", align 1

; Function Attrs: mustprogress nounwind uwtable
define linkonce_odr noundef ptr @_ZN5arrow13BufferBuilder12mutable_dataEv(ptr noundef nonnull align 8 dereferenceable(56) %this) #2 comdat align 2 {
entry:
  %this.addr = alloca ptr, align 8
  store ptr %this, ptr %this.addr, align 8
  %this1 = load ptr, ptr %this.addr, align 8
  %data_ = getelementptr inbounds %"class.arrow::BufferBuilder", ptr %this1, i32 0, i32 2
  %0 = load ptr, ptr %data_, align 8
  ret ptr %0
}

; Function Attrs: mustprogress nounwind uwtable
define internal void @_ZN5arrow8bit_utilL8SetBitToEPhlb(ptr noundef %bits, i64 noundef %i, i1 noundef zeroext %bit_is_set) #2 {
entry:
  %bits.addr = alloca ptr, align 8
  %i.addr = alloca i64, align 8
  %bit_is_set.addr = alloca i8, align 1
  store ptr %bits, ptr %bits.addr, align 8
  store i64 %i, ptr %i.addr, align 8
  %frombool = zext i1 %bit_is_set to i8
  store i8 %frombool, ptr %bit_is_set.addr, align 1
  %0 = load i8, ptr %bit_is_set.addr, align 1
  %tobool = trunc i8 %0 to i1
  %conv = zext i1 %tobool to i8
  %conv1 = zext i8 %conv to i32
  %sub = sub nsw i32 0, %conv1
  %1 = load ptr, ptr %bits.addr, align 8
  %2 = load i64, ptr %i.addr, align 8
  %div = sdiv i64 %2, 8
  %arrayidx = getelementptr inbounds i8, ptr %1, i64 %div
  %3 = load i8, ptr %arrayidx, align 1
  %conv2 = zext i8 %3 to i32
  %xor = xor i32 %sub, %conv2
  %conv3 = trunc i32 %xor to i8
  %conv4 = zext i8 %conv3 to i32
  %4 = load i64, ptr %i.addr, align 8
  %rem = srem i64 %4, 8
  %arrayidx5 = getelementptr inbounds [8 x i8], ptr @_ZN5arrow8bit_utilL8kBitmaskE, i64 0, i64 %rem
  %5 = load i8, ptr %arrayidx5, align 1
  %conv6 = zext i8 %5 to i32
  %and = and i32 %conv4, %conv6
  %6 = load ptr, ptr %bits.addr, align 8
  %7 = load i64, ptr %i.addr, align 8
  %div7 = sdiv i64 %7, 8
  %arrayidx8 = getelementptr inbounds i8, ptr %6, i64 %div7
  %8 = load i8, ptr %arrayidx8, align 1
  %conv9 = zext i8 %8 to i32
  %xor10 = xor i32 %conv9, %and
  %conv11 = trunc i32 %xor10 to i8
  store i8 %conv11, ptr %arrayidx8, align 1
  ret void
}

; Function Attrs: mustprogress nounwind uwtable
define linkonce_odr noundef ptr @_ZN5arrow18TypedBufferBuilderIbvE12mutable_dataEv(ptr noundef nonnull align 8 dereferenceable(72) %this) #2 comdat align 2 {
entry:
  %this.addr = alloca ptr, align 8
  store ptr %this, ptr %this.addr, align 8
  %this1 = load ptr, ptr %this.addr, align 8
  %bytes_builder_ = getelementptr inbounds %"class.arrow::TypedBufferBuilder", ptr %this1, i32 0, i32 0
  %call = call noundef ptr @_ZN5arrow13BufferBuilder12mutable_dataEv(ptr noundef nonnull align 8 dereferenceable(56) %bytes_builder_)
  ret ptr %call
}

; Function Attrs: mustprogress uwtable
define linkonce_odr void @_ZN5arrow18TypedBufferBuilderIbvE12UnsafeAppendEb(ptr noundef nonnull align 8 dereferenceable(72) %this, i1 noundef zeroext %value) #0 comdat align 2 {
entry:
  %this.addr = alloca ptr, align 8
  %value.addr = alloca i8, align 1
  store ptr %this, ptr %this.addr, align 8
  %frombool = zext i1 %value to i8
  store i8 %frombool, ptr %value.addr, align 1
  %this1 = load ptr, ptr %this.addr, align 8
  %call = call noundef ptr @_ZN5arrow18TypedBufferBuilderIbvE12mutable_dataEv(ptr noundef nonnull align 8 dereferenceable(72) %this1)
  %bit_length_ = getelementptr inbounds %"class.arrow::TypedBufferBuilder", ptr %this1, i32 0, i32 1
  %0 = load i64, ptr %bit_length_, align 8
  %1 = load i8, ptr %value.addr, align 1
  %tobool = trunc i8 %1 to i1
  call void @_ZN5arrow8bit_utilL8SetBitToEPhlb(ptr noundef %call, i64 noundef %0, i1 noundef zeroext %tobool)
  %2 = load i8, ptr %value.addr, align 1
  %tobool2 = trunc i8 %2 to i1
  br i1 %tobool2, label %if.end, label %if.then

if.then:                                          ; preds = %entry
  %false_count_ = getelementptr inbounds %"class.arrow::TypedBufferBuilder", ptr %this1, i32 0, i32 2
  %3 = load i64, ptr %false_count_, align 8
  %inc = add nsw i64 %3, 1
  store i64 %inc, ptr %false_count_, align 8
  br label %if.end

if.end:                                           ; preds = %if.then, %entry
  %bit_length_3 = getelementptr inbounds %"class.arrow::TypedBufferBuilder", ptr %this1, i32 0, i32 1
  %4 = load i64, ptr %bit_length_3, align 8
  %inc4 = add nsw i64 %4, 1
  store i64 %inc4, ptr %bit_length_3, align 8
  ret void
}

; Function Attrs: mustprogress nounwind uwtable
define linkonce_odr void @_ZN5arrow13BufferBuilder12UnsafeAppendEPKvl(ptr noundef nonnull align 8 dereferenceable(56) %this, ptr noundef %data, i64 noundef %length) #2 comdat align 2 {
entry:
  %this.addr = alloca ptr, align 8
  %data.addr = alloca ptr, align 8
  %length.addr = alloca i64, align 8
  store ptr %this, ptr %this.addr, align 8
  store ptr %data, ptr %data.addr, align 8
  store i64 %length, ptr %length.addr, align 8
  %this1 = load ptr, ptr %this.addr, align 8
  %data_ = getelementptr inbounds %"class.arrow::BufferBuilder", ptr %this1, i32 0, i32 2
  %0 = load ptr, ptr %data_, align 8
  %size_ = getelementptr inbounds %"class.arrow::BufferBuilder", ptr %this1, i32 0, i32 4
  %1 = load i64, ptr %size_, align 8
  %add.ptr = getelementptr inbounds i8, ptr %0, i64 %1
  %2 = load ptr, ptr %data.addr, align 8
  %3 = load i64, ptr %length.addr, align 8
  call void @llvm.memcpy.p0.p0.i64(ptr align 1 %add.ptr, ptr align 1 %2, i64 %3, i1 false)
  %4 = load i64, ptr %length.addr, align 8
  %size_2 = getelementptr inbounds %"class.arrow::BufferBuilder", ptr %this1, i32 0, i32 4
  %5 = load i64, ptr %size_2, align 8
  %add = add nsw i64 %5, %4
  store i64 %add, ptr %size_2, align 8
  ret void
}

; Function Attrs: mustprogress uwtable
define linkonce_odr void @_ZN5arrow12ArrayBuilder20UnsafeAppendToBitmapEb(ptr noundef nonnull align 8 dereferenceable(144) %this, i1 noundef zeroext %is_valid) #0 comdat align 2 {
entry:
  %this.addr = alloca ptr, align 8
  %is_valid.addr = alloca i8, align 1
  store ptr %this, ptr %this.addr, align 8
  %frombool = zext i1 %is_valid to i8
  store i8 %frombool, ptr %is_valid.addr, align 1
  %this1 = load ptr, ptr %this.addr, align 8
  %null_bitmap_builder_ = getelementptr inbounds %"class.arrow::ArrayBuilder", ptr %this1, i32 0, i32 3
  %0 = load i8, ptr %is_valid.addr, align 1
  %tobool = trunc i8 %0 to i1
  call void @_ZN5arrow18TypedBufferBuilderIbvE12UnsafeAppendEb(ptr noundef nonnull align 8 dereferenceable(72) %null_bitmap_builder_, i1 noundef zeroext %tobool)
  %length_ = getelementptr inbounds %"class.arrow::ArrayBuilder", ptr %this1, i32 0, i32 5
  %1 = load i64, ptr %length_, align 8
  %inc = add nsw i64 %1, 1
  store i64 %inc, ptr %length_, align 8
  %2 = load i8, ptr %is_valid.addr, align 1
  %tobool2 = trunc i8 %2 to i1
  br i1 %tobool2, label %if.end, label %if.then

if.then:                                          ; preds = %entry
  %null_count_ = getelementptr inbounds %"class.arrow::ArrayBuilder", ptr %this1, i32 0, i32 4
  %3 = load i64, ptr %null_count_, align 8
  %inc3 = add nsw i64 %3, 1
  store i64 %inc3, ptr %null_count_, align 8
  br label %if.end

if.end:                                           ; preds = %if.then, %entry
  ret void
}

; Function Attrs: mustprogress uwtable
define linkonce_odr void @_ZN5arrow22FixedSizeBinaryBuilder12UnsafeAppendEPKh(ptr noundef nonnull align 8 dereferenceable(208) %this, ptr noundef %value) #0 comdat align 2 {
entry:
  %this.addr = alloca ptr, align 8
  %value.addr = alloca ptr, align 8
  store ptr %this, ptr %this.addr, align 8
  store ptr %value, ptr %value.addr, align 8
  %this1 = load ptr, ptr %this.addr, align 8
  call void @_ZN5arrow12ArrayBuilder20UnsafeAppendToBitmapEb(ptr noundef nonnull align 8 dereferenceable(144) %this1, i1 noundef zeroext true)
  %byte_width_ = getelementptr inbounds %"class.arrow::FixedSizeBinaryBuilder", ptr %this1, i32 0, i32 1
  %0 = load i32, ptr %byte_width_, align 8
  %cmp = icmp sgt i32 %0, 0
  %lnot = xor i1 %cmp, true
  %lnot2 = xor i1 %lnot, true
  br i1 %lnot2, label %if.then, label %if.end

if.then:                                          ; preds = %entry
  %byte_builder_ = getelementptr inbounds %"class.arrow::FixedSizeBinaryBuilder", ptr %this1, i32 0, i32 2
  %1 = load ptr, ptr %value.addr, align 8
  %byte_width_3 = getelementptr inbounds %"class.arrow::FixedSizeBinaryBuilder", ptr %this1, i32 0, i32 1
  %2 = load i32, ptr %byte_width_3, align 8
  %conv = sext i32 %2 to i64
  call void @_ZN5arrow13BufferBuilder12UnsafeAppendEPKvl(ptr noundef nonnull align 8 dereferenceable(56) %byte_builder_, ptr noundef %1, i64 noundef %conv)
  br label %if.end

if.end:                                           ; preds = %if.then, %entry
  ret void
}

; Function Attrs: mustprogress nounwind uwtable
define linkonce_odr noundef ptr @_ZNKSt17basic_string_viewIcSt11char_traitsIcEE4dataEv(ptr noundef nonnull align 8 dereferenceable(16) %this) #2 comdat align 2 {
entry:
  %this.addr = alloca ptr, align 8
  store ptr %this, ptr %this.addr, align 8
  %this1 = load ptr, ptr %this.addr, align 8
  %_M_str = getelementptr inbounds %"class.std::basic_string_view", ptr %this1, i32 0, i32 1
  %0 = load ptr, ptr %_M_str, align 8
  ret ptr %0
}

; Function Attrs: mustprogress uwtable
define linkonce_odr void @_ZN5arrow22FixedSizeBinaryBuilder12UnsafeAppendESt17basic_string_viewIcSt11char_traitsIcEE(ptr noundef nonnull align 8 dereferenceable(208) %this, i64 %value.coerce0, ptr %value.coerce1) #0 comdat align 2 {
entry:
  %value = alloca %"class.std::basic_string_view", align 8
  %this.addr = alloca ptr, align 8
  %0 = getelementptr inbounds { i64, ptr }, ptr %value, i32 0, i32 0
  store i64 %value.coerce0, ptr %0, align 8
  %1 = getelementptr inbounds { i64, ptr }, ptr %value, i32 0, i32 1
  store ptr %value.coerce1, ptr %1, align 8
  store ptr %this, ptr %this.addr, align 8
  %this1 = load ptr, ptr %this.addr, align 8
  %call = call noundef ptr @_ZNKSt17basic_string_viewIcSt11char_traitsIcEE4dataEv(ptr noundef nonnull align 8 dereferenceable(16) %value) #11
  call void @_ZN5arrow22FixedSizeBinaryBuilder12UnsafeAppendEPKh(ptr noundef nonnull align 8 dereferenceable(208) %this1, ptr noundef %call)
  ret void
}

; Function Attrs: mustprogress uwtable
define void @_ZN5arrow17Decimal256Builder12UnsafeAppendESt17basic_string_viewIcSt11char_traitsIcEE(ptr noundef nonnull align 8 dereferenceable(224) %this, i64 %value.coerce0, ptr %value.coerce1) #0 align 2 {
entry:
  %value = alloca %"class.std::basic_string_view", align 8
  %this.addr = alloca ptr, align 8
  %agg.tmp = alloca %"class.std::basic_string_view", align 8
  %0 = getelementptr inbounds { i64, ptr }, ptr %value, i32 0, i32 0
  store i64 %value.coerce0, ptr %0, align 8
  %1 = getelementptr inbounds { i64, ptr }, ptr %value, i32 0, i32 1
  store ptr %value.coerce1, ptr %1, align 8
  store ptr %this, ptr %this.addr, align 8
  %this1 = load ptr, ptr %this.addr, align 8
  call void @llvm.memcpy.p0.p0.i64(ptr align 8 %agg.tmp, ptr align 8 %value, i64 16, i1 false)
  %2 = getelementptr inbounds { i64, ptr }, ptr %agg.tmp, i32 0, i32 0
  %3 = load i64, ptr %2, align 8
  %4 = getelementptr inbounds { i64, ptr }, ptr %agg.tmp, i32 0, i32 1
  %5 = load ptr, ptr %4, align 8
  call void @_ZN5arrow22FixedSizeBinaryBuilder12UnsafeAppendESt17basic_string_viewIcSt11char_traitsIcEE(ptr noundef nonnull align 8 dereferenceable(208) %this1, i64 %3, ptr %5)
  ret void
}